; Function Attrs: nounwind uwtable
define internal i32 @spl_array_compare_objects(ptr noundef %0, ptr noundef %1) #0 {
  %3 = getelementptr inbounds i8, ptr %0, i64 8
  %4 = load i8, ptr %3, align 8
  %.not = icmp eq i8 %4, 8
  br i1 %.not, label %5, label %19

5:                                                ; preds = %2
  %6 = getelementptr inbounds i8, ptr %1, i64 8
  %7 = load i8, ptr %6, align 8
  %.not24 = icmp eq i8 %7, 8
  br i1 %.not24, label %8, label %19

8:                                                ; preds = %5
  %9 = load ptr, ptr %0, align 8
  %10 = getelementptr inbounds i8, ptr %9, i64 24
  %11 = load ptr, ptr %10, align 8
  %12 = getelementptr inbounds i8, ptr %11, i64 184
  %13 = load ptr, ptr %12, align 8
  %14 = load ptr, ptr %1, align 8
  %15 = getelementptr inbounds i8, ptr %14, i64 24
  %16 = load ptr, ptr %15, align 8
  %17 = getelementptr inbounds i8, ptr %16, i64 184
  %18 = load ptr, ptr %17, align 8
  %.not25 = icmp eq ptr %13, %18
  br i1 %.not25, label %21, label %19

19:                                               ; preds = %8, %5, %2
  %20 = tail call i32 @zend_std_compare_objects(ptr noundef nonnull %0, ptr noundef %1) #11
  br label %108

21:                                               ; preds = %8
  %22 = getelementptr inbounds i8, ptr %9, i64 -88
  %23 = getelementptr inbounds i8, ptr %14, i64 -88
  %24 = getelementptr inbounds i8, ptr %9, i64 -68
  %25 = load i32, ptr %24, align 4
  %26 = and i32 %25, 16777216
  %.not30.i.i = icmp eq i32 %26, 0
  br i1 %.not30.i.i, label %.lr.ph.i.i, label %tailrecurse._crit_edge.i.i

tailrecurse._crit_edge.i.i:                       ; preds = %tailrecurse.i.i, %21
  %.tr.lcssa.i.i = phi ptr [ %22, %21 ], [ %34, %tailrecurse.i.i ]
  %27 = getelementptr inbounds i8, ptr %.tr.lcssa.i.i, i64 120
  %28 = load ptr, ptr %27, align 8
  %.not28.i.i = icmp eq ptr %28, null
  br i1 %.not28.i.i, label %29, label %spl_array_get_hash_table.exit

29:                                               ; preds = %tailrecurse._crit_edge.i.i
  %30 = getelementptr inbounds i8, ptr %.tr.lcssa.i.i, i64 88
  tail call void @rebuild_object_properties(ptr noundef nonnull %30) #11
  br label %spl_array_get_hash_table.exit

.lr.ph.i.i:                                       ; preds = %21, %tailrecurse.i.i
  %31 = phi i32 [ %36, %tailrecurse.i.i ], [ %25, %21 ]
  %.tr31.i.i = phi ptr [ %34, %tailrecurse.i.i ], [ %22, %21 ]
  %32 = and i32 %31, 33554432
  %.not25.i.i = icmp eq i32 %32, 0
  br i1 %.not25.i.i, label %38, label %tailrecurse.i.i

tailrecurse.i.i:                                  ; preds = %.lr.ph.i.i
  %33 = load ptr, ptr %.tr31.i.i, align 8
  %34 = getelementptr inbounds i8, ptr %33, i64 -88
  %35 = getelementptr inbounds i8, ptr %33, i64 -68
  %36 = load i32, ptr %35, align 4
  %37 = and i32 %36, 16777216
  %.not.i.i = icmp eq i32 %37, 0
  br i1 %.not.i.i, label %.lr.ph.i.i, label %tailrecurse._crit_edge.i.i

38:                                               ; preds = %.lr.ph.i.i
  %39 = getelementptr inbounds i8, ptr %.tr31.i.i, i64 8
  %40 = load i8, ptr %39, align 8
  %41 = icmp eq i8 %40, 7
  br i1 %41, label %spl_array_get_hash_table.exit, label %42

42:                                               ; preds = %38
  %43 = load ptr, ptr %.tr31.i.i, align 8
  %44 = getelementptr inbounds i8, ptr %43, i64 32
  %45 = load ptr, ptr %44, align 8
  %.not26.i.i = icmp eq ptr %45, null
  br i1 %.not26.i.i, label %46, label %47

46:                                               ; preds = %42
  tail call void @rebuild_object_properties(ptr noundef nonnull %43) #11
  br label %spl_array_get_hash_table.exit

47:                                               ; preds = %42
  %48 = load i32, ptr %45, align 4
  %49 = icmp ugt i32 %48, 1
  br i1 %49, label %50, label %spl_array_get_hash_table.exit

50:                                               ; preds = %47
  %51 = getelementptr inbounds i8, ptr %45, i64 4
  %52 = load i32, ptr %51, align 4
  %53 = and i32 %52, 64
  %.not27.i.i = icmp eq i32 %53, 0
  br i1 %.not27.i.i, label %54, label %56

54:                                               ; preds = %50
  %55 = add i32 %48, -1
  store i32 %55, ptr %45, align 4
  %.pre.i.i = load ptr, ptr %44, align 8
  br label %56

56:                                               ; preds = %54, %50
  %57 = phi ptr [ %.pre.i.i, %54 ], [ %45, %50 ]
  %58 = tail call ptr @zend_array_dup(ptr noundef %57) #11
  store ptr %58, ptr %44, align 8
  br label %spl_array_get_hash_table.exit

spl_array_get_hash_table.exit:                    ; preds = %tailrecurse._crit_edge.i.i, %29, %38, %46, %47, %56
  %.0.i.i = phi ptr [ %27, %29 ], [ %27, %tailrecurse._crit_edge.i.i ], [ %.tr31.i.i, %38 ], [ %44, %47 ], [ %44, %56 ], [ %44, %46 ]
  %59 = load ptr, ptr %.0.i.i, align 8
  %60 = getelementptr inbounds i8, ptr %14, i64 -68
  %61 = load i32, ptr %60, align 4
  %62 = and i32 %61, 16777216
  %.not30.i.i26 = icmp eq i32 %62, 0
  br i1 %.not30.i.i26, label %.lr.ph.i.i31, label %tailrecurse._crit_edge.i.i27

tailrecurse._crit_edge.i.i27:                     ; preds = %tailrecurse.i.i34, %spl_array_get_hash_table.exit
  %.tr.lcssa.i.i28 = phi ptr [ %23, %spl_array_get_hash_table.exit ], [ %70, %tailrecurse.i.i34 ]
  %63 = getelementptr inbounds i8, ptr %.tr.lcssa.i.i28, i64 120
  %64 = load ptr, ptr %63, align 8
  %.not28.i.i29 = icmp eq ptr %64, null
  br i1 %.not28.i.i29, label %65, label %spl_array_get_hash_table.exit39

65:                                               ; preds = %tailrecurse._crit_edge.i.i27
  %66 = getelementptr inbounds i8, ptr %.tr.lcssa.i.i28, i64 88
  tail call void @rebuild_object_properties(ptr noundef nonnull %66) #11
  br label %spl_array_get_hash_table.exit39

.lr.ph.i.i31:                                     ; preds = %spl_array_get_hash_table.exit, %tailrecurse.i.i34
  %67 = phi i32 [ %72, %tailrecurse.i.i34 ], [ %61, %spl_array_get_hash_table.exit ]
  %.tr31.i.i32 = phi ptr [ %70, %tailrecurse.i.i34 ], [ %23, %spl_array_get_hash_table.exit ]
  %68 = and i32 %67, 33554432
  %.not25.i.i33 = icmp eq i32 %68, 0
  br i1 %.not25.i.i33, label %74, label %tailrecurse.i.i34

tailrecurse.i.i34:                                ; preds = %.lr.ph.i.i31
  %69 = load ptr, ptr %.tr31.i.i32, align 8
  %70 = getelementptr inbounds i8, ptr %69, i64 -88
  %71 = getelementptr inbounds i8, ptr %69, i64 -68
  %72 = load i32, ptr %71, align 4
  %73 = and i32 %72, 16777216
  %.not.i.i35 = icmp eq i32 %73, 0
  br i1 %.not.i.i35, label %.lr.ph.i.i31, label %tailrecurse._crit_edge.i.i27

74:                                               ; preds = %.lr.ph.i.i31
  %75 = getelementptr inbounds i8, ptr %.tr31.i.i32, i64 8
  %76 = load i8, ptr %75, align 8
  %77 = icmp eq i8 %76, 7
  br i1 %77, label %spl_array_get_hash_table.exit39, label %78

78:                                               ; preds = %74
  %79 = load ptr, ptr %.tr31.i.i32, align 8
  %80 = getelementptr inbounds i8, ptr %79, i64 32
  %81 = load ptr, ptr %80, align 8
  %.not26.i.i36 = icmp eq ptr %81, null
  br i1 %.not26.i.i36, label %82, label %83

82:                                               ; preds = %78
  tail call void @rebuild_object_properties(ptr noundef nonnull %79) #11
  br label %spl_array_get_hash_table.exit39

83:                                               ; preds = %78
  %84 = load i32, ptr %81, align 4
  %85 = icmp ugt i32 %84, 1
  br i1 %85, label %86, label %spl_array_get_hash_table.exit39

86:                                               ; preds = %83
  %87 = getelementptr inbounds i8, ptr %81, i64 4
  %88 = load i32, ptr %87, align 4
  %89 = and i32 %88, 64
  %.not27.i.i37 = icmp eq i32 %89, 0
  br i1 %.not27.i.i37, label %90, label %92

90:                                               ; preds = %86
  %91 = add i32 %84, -1
  store i32 %91, ptr %81, align 4
  %.pre.i.i38 = load ptr, ptr %80, align 8
  br label %92

92:                                               ; preds = %90, %86
  %93 = phi ptr [ %.pre.i.i38, %90 ], [ %81, %86 ]
  %94 = tail call ptr @zend_array_dup(ptr noundef %93) #11
  store ptr %94, ptr %80, align 8
  br label %spl_array_get_hash_table.exit39

spl_array_get_hash_table.exit39:                  ; preds = %tailrecurse._crit_edge.i.i27, %65, %74, %82, %83, %92
  %.0.i.i30 = phi ptr [ %63, %65 ], [ %63, %tailrecurse._crit_edge.i.i27 ], [ %.tr31.i.i32, %74 ], [ %80, %83 ], [ %80, %92 ], [ %80, %82 ]
  %95 = load ptr, ptr %.0.i.i30, align 8
  %96 = tail call i32 @zend_compare_symbol_tables(ptr noundef %59, ptr noundef %95) #11
  %97 = icmp eq i32 %96, 0
  br i1 %97, label %98, label %108

98:                                               ; preds = %spl_array_get_hash_table.exit39
  %99 = getelementptr inbounds i8, ptr %9, i64 32
  %100 = load ptr, ptr %99, align 8
  %101 = icmp eq ptr %59, %100
  br i1 %101, label %102, label %106

102:                                              ; preds = %98
  %103 = getelementptr inbounds i8, ptr %14, i64 32
  %104 = load ptr, ptr %103, align 8
  %105 = icmp eq ptr %95, %104
  br i1 %105, label %108, label %106

106:                                              ; preds = %102, %98
  %107 = tail call i32 @zend_std_compare_objects(ptr noundef nonnull %0, ptr noundef nonnull %1) #11
  br label %108

108:                                              ; preds = %spl_array_get_hash_table.exit39, %102, %106, %19
  %.022 = phi i32 [ %20, %19 ], [ 0, %102 ], [ %107, %106 ], [ %96, %spl_array_get_hash_table.exit39 ]
  ret i32 %.022
}